; Function Attrs: nofree norecurse nosync nounwind memory(readwrite, inaccessiblemem: none) uwtable
define void @N_VAddConst_Serial(ptr noundef readonly captures(none) %0, double noundef %1, ptr noundef readonly captures(none) %2) #7 {
  %4 = load ptr, ptr %0, align 8, !tbaa !54
  %5 = load i64, ptr %4, align 8, !tbaa !55
  %6 = getelementptr inbounds nuw i8, ptr %4, i64 16
  %7 = load ptr, ptr %6, align 8, !tbaa !61
  %8 = load ptr, ptr %2, align 8, !tbaa !54
  %9 = getelementptr inbounds nuw i8, ptr %8, i64 16
  %10 = load ptr, ptr %9, align 8, !tbaa !61
  %11 = icmp sgt i64 %5, 0
  br i1 %11, label %.lr.ph, label %._crit_edge

.lr.ph:                                           ; preds = %3, %.lr.ph
  %.010 = phi i64 [ %16, %.lr.ph ], [ 0, %3 ]
  %12 = getelementptr inbounds nuw double, ptr %7, i64 %.010
  %13 = load double, ptr %12, align 8, !tbaa !64
  %14 = fadd double %1, %13
  %15 = getelementptr inbounds nuw double, ptr %10, i64 %.010
  store double %14, ptr %15, align 8, !tbaa !64
  %16 = add nuw nsw i64 %.010, 1
  %exitcond.not = icmp eq i64 %16, %5
  br i1 %exitcond.not, label %._crit_edge, label %.lr.ph

._crit_edge:                                      ; preds = %.lr.ph, %3
  ret void
}